target datalayout = "e-m:e-p270:32:32-p271:32:32-p272:64:64-i64:64-i128:128-f80:128-n8:16:32:64-S128"
target triple = "x86_64-pc-linux-gnu"

; Function Attrs: null_pointer_is_valid sspstrong uwtable
define internal zeroext i1 @test_dcm(ptr noundef %0) #0 {
  %2 = alloca i1, align 1
  %3 = alloca ptr, align 8
  %4 = alloca i8, align 1
  %5 = alloca i32, align 4
  %6 = alloca i16, align 2
  %7 = alloca i32, align 4
  store ptr %0, ptr %3, align 8
  call void @llvm.lifetime.start.p0(i64 1, ptr %4) #14
  call void @llvm.lifetime.start.p0(i64 4, ptr %5) #14
  call void @llvm.lifetime.start.p0(i64 2, ptr %6) #14
  %8 = load ptr, ptr %3, align 8
  %9 = call i32 @tvb_captured_length(ptr noundef %8)
  %10 = icmp ult i32 %9, 8
  br i1 %10, label %11, label %12

11:                                               ; preds = %1
  store i1 false, ptr %2, align 1
  store i32 1, ptr %7, align 4
  br label %40

12:                                               ; preds = %1
  %13 = load ptr, ptr %3, align 8
  %14 = call i32 @tvb_reported_length(ptr noundef %13)
  %15 = icmp ult i32 %14, 10
  br i1 %15, label %16, label %17

16:                                               ; preds = %12
  store i1 false, ptr %2, align 1
  store i32 1, ptr %7, align 4
  br label %40

17:                                               ; preds = %12
  %18 = load ptr, ptr %3, align 8
  %19 = call zeroext i8 @tvb_get_uint8(ptr noundef %18, i32 noundef 0)
  store i8 %19, ptr %4, align 1
  %20 = load ptr, ptr %3, align 8
  %21 = call i32 @tvb_get_ntohl(ptr noundef %20, i32 noundef 2)
  store i32 %21, ptr %5, align 4
  %22 = load ptr, ptr %3, align 8
  %23 = call zeroext i16 @tvb_get_ntohs(ptr noundef %22, i32 noundef 6)
  store i16 %23, ptr %6, align 2
  %24 = load i8, ptr %4, align 1
  %25 = zext i8 %24 to i32
  %26 = icmp eq i32 %25, 1
  br i1 %26, label %27, label %31

27:                                               ; preds = %17
  %28 = load i16, ptr %6, align 2
  %29 = zext i16 %28 to i32
  %30 = icmp eq i32 %29, 1
  br i1 %30, label %32, label %31

31:                                               ; preds = %27, %17
  store i1 false, ptr %2, align 1
  store i32 1, ptr %7, align 4
  br label %40

32:                                               ; preds = %27
  %33 = load ptr, ptr %3, align 8
  %34 = call i32 @tvb_reported_length(ptr noundef %33)
  %35 = load i32, ptr %5, align 4
  %36 = add i32 %35, 6
  %37 = icmp ugt i32 %34, %36
  br i1 %37, label %38, label %39

38:                                               ; preds = %32
  store i1 false, ptr %2, align 1
  store i32 1, ptr %7, align 4
  br label %40

39:                                               ; preds = %32
  store i1 true, ptr %2, align 1
  store i32 1, ptr %7, align 4
  br label %40

40:                                               ; preds = %39, %38, %31, %16, %11
  call void @llvm.lifetime.end.p0(i64 2, ptr %6) #14
  call void @llvm.lifetime.end.p0(i64 4, ptr %5) #14
  call void @llvm.lifetime.end.p0(i64 1, ptr %4) #14
  %41 = load i1, ptr %2, align 1
  ret i1 %41
}

; Function Attrs: null_pointer_is_valid sspstrong uwtable
define internal zeroext i1 @dissect_dcm_heuristic(ptr noundef %0, ptr noundef %1, ptr noundef %2, ptr noundef %3) #0 {
  %5 = alloca i1, align 1
  %6 = alloca ptr, align 8
  %7 = alloca ptr, align 8
  %8 = alloca ptr, align 8
  %9 = alloca ptr, align 8
  store ptr %0, ptr %6, align 8
  store ptr %1, ptr %7, align 8
  store ptr %2, ptr %8, align 8
  store ptr %3, ptr %9, align 8
  %10 = load ptr, ptr %6, align 8
  %11 = call zeroext i1 @test_dcm(ptr noundef %10)
  br i1 %11, label %13, label %12

12:                                               ; preds = %4
  store i1 false, ptr %5, align 1
  br label %21

13:                                               ; preds = %4
  %14 = load ptr, ptr %6, align 8
  %15 = load ptr, ptr %7, align 8
  %16 = load ptr, ptr %8, align 8
  %17 = call i32 @dissect_dcm_main(ptr noundef %14, ptr noundef %15, ptr noundef %16, i1 noundef zeroext false)
  %18 = icmp eq i32 %17, 0
  br i1 %18, label %19, label %20

19:                                               ; preds = %13
  store i1 false, ptr %5, align 1
  br label %21

20:                                               ; preds = %13
  store i1 true, ptr %5, align 1
  br label %21

21:                                               ; preds = %20, %19, %12
  %22 = load i1, ptr %5, align 1
  ret i1 %22
}