; Function Attrs: null_pointer_is_valid sspstrong uwtable
define internal zeroext i1 @dissect_dcm_heuristic(ptr noundef %0, ptr noundef %1, ptr noundef %2, ptr readnone captures(none) %3) #0 {
  %5 = tail call i32 @tvb_captured_length(ptr noundef %0)
  %6 = icmp ult i32 %5, 8
  br i1 %6, label %test_dcm.exit.thread, label %7

7:                                                ; preds = %4
  %8 = tail call i32 @tvb_reported_length(ptr noundef %0)
  %9 = icmp ult i32 %8, 10
  br i1 %9, label %test_dcm.exit.thread, label %10

10:                                               ; preds = %7
  %11 = tail call zeroext i8 @tvb_get_uint8(ptr noundef %0, i32 noundef 0)
  %12 = tail call i32 @tvb_get_ntohl(ptr noundef %0, i32 noundef 2)
  %13 = tail call zeroext i16 @tvb_get_ntohs(ptr noundef %0, i32 noundef 6)
  %14 = icmp eq i8 %11, 1
  %15 = icmp eq i16 %13, 1
  %or.cond.i = select i1 %14, i1 %15, i1 false
  br i1 %or.cond.i, label %test_dcm.exit, label %test_dcm.exit.thread

test_dcm.exit:                                    ; preds = %10
  %16 = tail call i32 @tvb_reported_length(ptr noundef %0)
  %17 = add i32 %12, 6
  %.not = icmp ugt i32 %16, %17
  br i1 %.not, label %test_dcm.exit.thread, label %18

18:                                               ; preds = %test_dcm.exit
  %19 = tail call fastcc i32 @dissect_dcm_main(ptr noundef %0, ptr noundef %1, ptr noundef %2, i1 noundef zeroext false)
  %20 = icmp ne i32 %19, 0
  br label %test_dcm.exit.thread

test_dcm.exit.thread:                             ; preds = %10, %7, %4, %18, %test_dcm.exit
  %.0 = phi i1 [ false, %test_dcm.exit ], [ %20, %18 ], [ false, %4 ], [ false, %7 ], [ false, %10 ]
  ret i1 %.0
}